target datalayout = "e-m:e-p270:32:32-p271:32:32-p272:64:64-i64:64-i128:128-f80:128-n8:16:32:64-S128"
target triple = "x86_64-pc-linux-gnu"

%struct.Abc_BddMan_ = type { i32, i32, i32, ptr, ptr, ptr, ptr, ptr, ptr, i32, i32, i32, i32, i64 }

; Function Attrs: inlinehint nounwind uwtable
define internal i32 @Abc_LitNotCond(i32 noundef %0, i32 noundef %1) #3 {
  %3 = alloca i32, align 4
  %4 = alloca i32, align 4
  store i32 %0, ptr %3, align 4, !tbaa !3
  store i32 %1, ptr %4, align 4, !tbaa !3
  %5 = load i32, ptr %3, align 4, !tbaa !3
  %6 = load i32, ptr %4, align 4, !tbaa !3
  %7 = icmp sgt i32 %6, 0
  %8 = zext i1 %7 to i32
  %9 = xor i32 %5, %8
  ret i32 %9
}

; Function Attrs: inlinehint nounwind uwtable
define internal i32 @Abc_LitIsCompl(i32 noundef %0) #3 {
  %2 = alloca i32, align 4
  store i32 %0, ptr %2, align 4, !tbaa !3
  %3 = load i32, ptr %2, align 4, !tbaa !3
  %4 = and i32 %3, 1
  ret i32 %4
}

; Function Attrs: inlinehint nounwind uwtable
define internal i32 @Abc_LitRegular(i32 noundef %0) #3 {
  %2 = alloca i32, align 4
  store i32 %0, ptr %2, align 4, !tbaa !3
  %3 = load i32, ptr %2, align 4, !tbaa !3
  %4 = and i32 %3, -2
  ret i32 %4
}

; Function Attrs: inlinehint nounwind uwtable
define internal i32 @Abc_Lit2Var(i32 noundef %0) #3 {
  %2 = alloca i32, align 4
  store i32 %0, ptr %2, align 4, !tbaa !3
  %3 = load i32, ptr %2, align 4, !tbaa !3
  %4 = ashr i32 %3, 1
  ret i32 %4
}

; Function Attrs: inlinehint nounwind uwtable
define internal i32 @Abc_BddThen(ptr noundef %0, i32 noundef %1) #3 {
  %3 = alloca ptr, align 8
  %4 = alloca i32, align 4
  store ptr %0, ptr %3, align 8, !tbaa !7
  store i32 %1, ptr %4, align 4, !tbaa !3
  %5 = load ptr, ptr %3, align 8, !tbaa !7
  %6 = getelementptr inbounds nuw %struct.Abc_BddMan_, ptr %5, i32 0, i32 6
  %7 = load ptr, ptr %6, align 8, !tbaa !21
  %8 = load i32, ptr %4, align 4, !tbaa !3
  %9 = call i32 @Abc_LitRegular(i32 noundef %8)
  %10 = sext i32 %9 to i64
  %11 = getelementptr inbounds i32, ptr %7, i64 %10
  %12 = load i32, ptr %11, align 4, !tbaa !3
  %13 = load i32, ptr %4, align 4, !tbaa !3
  %14 = call i32 @Abc_LitIsCompl(i32 noundef %13)
  %15 = call i32 @Abc_LitNotCond(i32 noundef %12, i32 noundef %14)
  ret i32 %15
}

; Function Attrs: inlinehint nounwind uwtable
define internal i32 @Abc_BddElse(ptr noundef %0, i32 noundef %1) #3 {
  %3 = alloca ptr, align 8
  %4 = alloca i32, align 4
  store ptr %0, ptr %3, align 8, !tbaa !7
  store i32 %1, ptr %4, align 4, !tbaa !3
  %5 = load ptr, ptr %3, align 8, !tbaa !7
  %6 = getelementptr inbounds nuw %struct.Abc_BddMan_, ptr %5, i32 0, i32 6
  %7 = load ptr, ptr %6, align 8, !tbaa !21
  %8 = load i32, ptr %4, align 4, !tbaa !3
  %9 = call i32 @Abc_LitRegular(i32 noundef %8)
  %10 = add nsw i32 %9, 1
  %11 = sext i32 %10 to i64
  %12 = getelementptr inbounds i32, ptr %7, i64 %11
  %13 = load i32, ptr %12, align 4, !tbaa !3
  %14 = load i32, ptr %4, align 4, !tbaa !3
  %15 = call i32 @Abc_LitIsCompl(i32 noundef %14)
  %16 = call i32 @Abc_LitNotCond(i32 noundef %13, i32 noundef %15)
  ret i32 %16
}

; Function Attrs: inlinehint nounwind uwtable
define internal void @Abc_BddSetMark(ptr noundef %0, i32 noundef %1, i32 noundef %2) #3 {
  %4 = alloca ptr, align 8
  %5 = alloca i32, align 4
  %6 = alloca i32, align 4
  store ptr %0, ptr %4, align 8, !tbaa !7
  store i32 %1, ptr %5, align 4, !tbaa !3
  store i32 %2, ptr %6, align 4, !tbaa !3
  %7 = load i32, ptr %6, align 4, !tbaa !3
  %8 = trunc i32 %7 to i8
  %9 = load ptr, ptr %4, align 8, !tbaa !7
  %10 = getelementptr inbounds nuw %struct.Abc_BddMan_, ptr %9, i32 0, i32 8
  %11 = load ptr, ptr %10, align 8, !tbaa !22
  %12 = load i32, ptr %5, align 4, !tbaa !3
  %13 = call i32 @Abc_Lit2Var(i32 noundef %12)
  %14 = sext i32 %13 to i64
  %15 = getelementptr inbounds i8, ptr %11, i64 %14
  store i8 %8, ptr %15, align 1, !tbaa !24
  ret void
}

; Function Attrs: inlinehint nounwind uwtable
define internal i32 @Abc_BddMark(ptr noundef %0, i32 noundef %1) #3 {
  %3 = alloca ptr, align 8
  %4 = alloca i32, align 4
  store ptr %0, ptr %3, align 8, !tbaa !7
  store i32 %1, ptr %4, align 4, !tbaa !3
  %5 = load ptr, ptr %3, align 8, !tbaa !7
  %6 = getelementptr inbounds nuw %struct.Abc_BddMan_, ptr %5, i32 0, i32 8
  %7 = load ptr, ptr %6, align 8, !tbaa !22
  %8 = load i32, ptr %4, align 4, !tbaa !3
  %9 = call i32 @Abc_Lit2Var(i32 noundef %8)
  %10 = sext i32 %9 to i64
  %11 = getelementptr inbounds i8, ptr %7, i64 %10
  %12 = load i8, ptr %11, align 1, !tbaa !24
  %13 = zext i8 %12 to i32
  ret i32 %13
}

; Function Attrs: nounwind uwtable
define void @Abc_BddUnmark_rec(ptr noundef %0, i32 noundef %1) #0 {
  %3 = alloca ptr, align 8
  %4 = alloca i32, align 4
  store ptr %0, ptr %3, align 8, !tbaa !7
  store i32 %1, ptr %4, align 4, !tbaa !3
  %5 = load i32, ptr %4, align 4, !tbaa !3
  %6 = icmp slt i32 %5, 2
  br i1 %6, label %7, label %8

7:                                                ; preds = %2
  br label %25

8:                                                ; preds = %2
  %9 = load ptr, ptr %3, align 8, !tbaa !7
  %10 = load i32, ptr %4, align 4, !tbaa !3
  %11 = call i32 @Abc_BddMark(ptr noundef %9, i32 noundef %10)
  %12 = icmp ne i32 %11, 0
  br i1 %12, label %14, label %13

13:                                               ; preds = %8
  br label %25

14:                                               ; preds = %8
  %15 = load ptr, ptr %3, align 8, !tbaa !7
  %16 = load i32, ptr %4, align 4, !tbaa !3
  call void @Abc_BddSetMark(ptr noundef %15, i32 noundef %16, i32 noundef 0)
  %17 = load ptr, ptr %3, align 8, !tbaa !7
  %18 = load ptr, ptr %3, align 8, !tbaa !7
  %19 = load i32, ptr %4, align 4, !tbaa !3
  %20 = call i32 @Abc_BddElse(ptr noundef %18, i32 noundef %19)
  call void @Abc_BddUnmark_rec(ptr noundef %17, i32 noundef %20)
  %21 = load ptr, ptr %3, align 8, !tbaa !7
  %22 = load ptr, ptr %3, align 8, !tbaa !7
  %23 = load i32, ptr %4, align 4, !tbaa !3
  %24 = call i32 @Abc_BddThen(ptr noundef %22, i32 noundef %23)
  call void @Abc_BddUnmark_rec(ptr noundef %21, i32 noundef %24)
  br label %25

25:                                               ; preds = %14, %13, %7
  ret void
}