; Function Attrs: nofree nosync nounwind memory(readwrite, inaccessiblemem: none) uwtable
define void @Abc_BddUnmark_rec(ptr noundef readonly captures(none) %0, i32 noundef %1) local_unnamed_addr #5 {
  %3 = getelementptr i8, ptr %0, i64 56
  %4 = icmp slt i32 %1, 2
  br i1 %4, label %._crit_edge, label %.lr.ph

.lr.ph:                                           ; preds = %2
  %5 = getelementptr i8, ptr %0, i64 40
  br label %6

6:                                                ; preds = %.lr.ph, %tailrecurse
  %.tr1314 = phi i32 [ %1, %.lr.ph ], [ %20, %tailrecurse ]
  %.val11 = load ptr, ptr %3, align 8, !tbaa !19
  %7 = lshr i32 %.tr1314, 1
  %8 = zext nneg i32 %7 to i64
  %9 = getelementptr inbounds nuw i8, ptr %.val11, i64 %8
  %10 = load i8, ptr %9, align 1, !tbaa !21
  %.not = icmp eq i8 %10, 0
  br i1 %.not, label %._crit_edge, label %tailrecurse

tailrecurse:                                      ; preds = %6
  store i8 0, ptr %9, align 1, !tbaa !21
  %.val = load ptr, ptr %5, align 8, !tbaa !18
  %11 = and i32 %.tr1314, 2147483646
  %12 = zext nneg i32 %11 to i64
  %13 = getelementptr i32, ptr %.val, i64 %12
  %14 = getelementptr i8, ptr %13, i64 4
  %15 = load i32, ptr %14, align 4, !tbaa !23
  %16 = and i32 %.tr1314, 1
  %17 = xor i32 %15, %16
  tail call void @Abc_BddUnmark_rec(ptr noundef nonnull %0, i32 noundef %17)
  %.val10 = load ptr, ptr %5, align 8, !tbaa !18
  %18 = getelementptr inbounds nuw i32, ptr %.val10, i64 %12
  %19 = load i32, ptr %18, align 4, !tbaa !23
  %20 = xor i32 %19, %16
  %21 = icmp slt i32 %20, 2
  br i1 %21, label %._crit_edge, label %6

._crit_edge:                                      ; preds = %tailrecurse, %6, %2
  ret void
}